(dp0
Vcouncil directive 96/82/ec
p1
Vseveso directives
p2
sVtransmissible infection
p3
Vcontagious disease.
p4
sVlabels
p5
Vadr labels, clp regulation, ghs labels, hazard identification number, hazchem, nuclear label i white, nuclear label ii yellow, nuclear label iii yellow, nuclear label fissile, orange plate, type "b" package
p6
sVviral haemorrhagic fever
p7
Vhaemorrhagic fever virus
p8
sVsafeguards
p9
Vnuclear safeguards
p10
sVhydrogen chloride
p11
Vpulmonary agents
p12
sVhazmat
p13
Vhazardous materials.
p14
sVadr
p15
Vdangerous goods core legislation
p16
sVpropelling charge
p17
Vcommission directive 2004/57/ec
p18
sVdecay
p19
Vhalflife
p20
sVassembly point
p21
Vassistance centre.
p22
sVaviation security
p23
Vregulation (ec) no 300/2008
p24
sVdepleted uranium
p25
Vuranium 238
p26
sVradioactive improvised explosive device
p27
Vdirty bomb
p28
sVdefoliants
p29
Vagent orange
p30
sVlc50
p31
Vlethal dose
p32
sVfuel
p33
Vnuclear fuel
p34
sVsafety
p35
Vbiosafety, international chemical safety cards, safety data sheet, tremcards
p36
sVdecontamination
p37
Vdry decontamination, wet decontamination
p38
sVlatent infection
p39
Vpersistent infection.
p40
sVfreezing point
p41
Vmelting point
p42
sVtlv-twa
p43
Vexposure limits for chemicals
p44
sVhand-held detectors
p45
Vfield methods
p46
sVhigh-activity sealed source
p47
Vcouncil directive 2003/122/euratom on the control of high-activity sealed radioactive sources and orphan sources.
p48
sVbooby trap
p49
Vied
p50
sVepidemic
p51
Voutbreak
p52
sVlpvc
p53
Vhpvc
p54
sVliquid chromatography
p55
Vhplc
p56
sVacetone
p57
Vhpvc.
p58
sVscreening for explosives
p59
Vregulation (ec) no 300/2008
p60
sVflammable
p61
Vcombustible, flammability
p62
sVdangerous goods
p63
Vclasses of dangerous goods, dangerous goods core legislation
p64
sVeu action plan on enhancing the security of explosives
p65
Vcom(2014) 247 final
p66
sVdetection methods
p67
Vatomic absorption spectrometry, chromatography, eds, gas chromatography, infrared spectroscopy, laboratory methods, liquid chromatography, mass spectrometry, remote detection, x-ray fluorescence,
p68
sVsecurity
p69
Vbiosecurity, nuclear security, security of explosives, security scanners
p70
sVtlv-c
p71
Vexposure limits for chemicals
p72
sVbrucellosis
p73
Vbrucella species.
p74
sVzoonosis
p75
Vzoonotic disease
p76
sVvesicants
p77
Vblister agent
p78
sVprimary explosives
p79
Vdetonation, sensitivity of explosives
p80
sVmunitions
p81
Vammunition
p82
sVwet decontamination
p83
Vdry decontamination, mass decontamination
p84
sVparticle detection
p85
Vtrace detection.
p86
sVendotoxin
p87
Vtoxin.
p88
sVdual-use
p89
Vdual-use item
p90
sVadr classes
p91
Vclasses of dangerous goods
p92
sVexplosive detection dogs
p93
Vcommission regulation (ec) no 272/2009
p94
sVrel
p95
Vexposure limits for chemicals
p96
sVsuspect of infection
p97
Vperson likely to be sick
p98
sVvapour detection
p99
Vtrace detection
p100
sVradioisotope
p101
Vradionuclide
p102
sVred
p103
Vradiological exposure device
p104
sVdetection instruments
p105
Vdetection tubes, security scanners, explosive trace detector, ftir, gc-ms, geiger-mller tube, hplc, icp-ms, ionisation chamber, raman spectroscopy, sensitivity of detection equipment, x-ray machine,
p106
sVnuclear material
p107
Vradioactive material
p108
sVnotified body
p109
Vcouncil directive 93/15/eec, see hmx.
p110
sVsulphuric acid
p111
Vhpvc
p112
sVkemler
p113
Vhazard identification number
p114
sVincendiary ammunition
p115
Vcommission directive 2004/57/ec
p116
sVchoking agents
p117
Vpulmonary agents.
p118
sVchlorine
p119
Vpulmonary agent
p120
sVsecondary explosive
p121
Vsensitivity of explosives. fragment
p122
sVa2 refers to the normal form of radioactive material.
p123
Vadr
p124
sVcommunicable disease
p125
Vcontagious disease
p126
sVprecursor
p127
Vexplosives precursor, chemical weapons precursor.
p128
sVrdd
p129
Vradiological dispersion device
p130
sVradioactive source
p131
Vnuclear medicine
p132
sVthreat
p133
Vhazard
p134
sVaegl
p135
Vexposure limits for chemicals.
p136
sVchemical effects
p137
Vhealth effects of chemicals
p138
sVbulk detection
p139
Vtrace detection.
p140
sVtrinitrotoluene
p141
Vtnt
p142
sVfrancisella tularensis
p143
Vtularaemia
p144
sVconfinement system
p145
Vcontainment
p146
sVwarning plate (adr)
p147
Vorange plate
p148
sVgeneral infection
p149
Vsystemic infection.
p150
sVbeta radiation
p151
Vnatural background radiation
p152
sVbackground radiation
p153
Vnatural background radiation
p154
sVionizing radiation
p155
Valpha radiation, beta radiation, gamma radiation
p156
sVlct50
p157
Vtoxicity
p158
sVresilience
p159
Vcbrne resilience
p160
sVswipe
p161
Vdetection, trace detection, explosives
p162
sVinfectious dose 50%
p163
Vlethal dose, ld50
p164
sVoxidizer
p165
Vfuel, explosives and oxygen balance.
p166
sVexotoxins
p167
Vtoxin
p168
sVtlv-stel
p169
Vexposure limits for chemicals
p170
sVercc
p171
Vemergency response and coordination centre
p172
sVconcentration limits
p173
Vexposure limits for chemicals
p174
sVpathogen
p175
Vpathogenic agent
p176
sVradiotoxicity
p177
Veffective dose coefficient
p178
sVemergency management
p179
Vcasualty decontamination, cold zone, ecurie, emergency plan, erpg, generic emergency plan, hot zone, response, response phase, risk control, warm zone,
p180
sVflash cartriges
p181
Vcommission directive 2004/57/ec
p182
sVpost mortem data
p183
Vcasualties
p184
sVtrialling
p185
Vcom(2007) 651 final
p186
sVperson borne improvised explosive device
p187
Vied, vbied
p188
sVeu cbrn-action plan
p189
Vcom(2014) 247 final
p190
sVhome-made explosives
p191
Vregulation 98/2013
p192
sVcartridges
p193
Vcommission directive 2004/57/ec
p194
sVintoxication
p195
Vpoison control centre
p196
sVradioactive explosive device
p197
Vdirty bomb
p198
sVnuclear safeguards
p199
Viaea, npt
p200
sVcasualties
p201
Vvictim
p202
sVetw
p203
Vexposure limits for chemicals
p204
sVld50
p205
Vlethal dose
p206
sVvbied
p207
Vpbied
p208
sVisolation
p209
Vperson likely to be infected
p210
sVanormaly detection
p211
Vecurity scanners
p212
sVchicago convention
p213
Vregulation (ec) no 300/2008
p214
sVinternational conventions/agreements
p215
Vadr, chicago convention, convention on assistance in the case of nuclear accident or radiological emergency, convention on early notification of a nuclear accident, convention on mutual assistance and cooperation between customs administrations, convention on nuclear safety \u2013 iaea, convention on the physical protection of nuclear material, convention on the transboundary effects of industrial accidents (unece) 1991, dangerous goods core legislation, multilateral export control regimes, international chemical safety cards, joint convention on the safety of spent fuel management and on the safety of radioactive waste management, special arrangement, un number (chemical), un number (nuclear),
p216
sVcold zone
p217
Vhot zone, warm zone, decontamination
p218
sVwarm zone
p219
Vhot zone, cold zone, decontamination
p220
sVbiological weapons convention
p221
Vchemical weapons convention, resolution 1540
p222
sVcmr substances
p223
Vhealth effects of chemicals, clp regulation
p224
sVidlh
p225
Vexposure limits for chemicals
p226
sVincubation period
p227
Vebola
p228
sVscba
p229
Vself-contained breathing apparatus
p230
sVradiological dispersion device
p231
Vdirty bomb
p232
sVtransport legislation
p233
Vadr, adr labels, classes of dangerous goods, convention on the physical protection of nuclear material, dangerous goods core legislation, excepted fissile, industrial package, n.o.s., package rn, packing group, special arrangement, transport index, tremcards, tunnel restriction code, type "a" package, type "b" package, type "c" package,
p234
sVteel
p235
Vexposure limits for chemicals
p236
sVcommander
p237
Vincident commander
p238
sVerpg
p239
Vexposure limits for chemicals
p240
sVinner cordon
p241
Vouter cordon
p242
sVburster
p243
Vcommission directive 2004/57/ec
p244
sVspegl
p245
Vexposure limits for chemicals
p246
sVbiological hazard
p247
Vbiological agents
p248
sVlatency
p249
Vtoxicology, toxicodynamics
p250
sVpercutaneous
p251
Vroutes of exposure
p252
sVyellow fever virus
p253
Vyellow fever
p254
sVpyrotechnics
p255
Venergetic material
p256
sVhydrogen cyanide
p257
Vcyanides
p258
sVuranium
p259
Vdepleted uranium, uranium 234, uranium 235, uranium 238
p260
sVimprovised explosives
p261
Vhome-made explosives.
p262
sVatropine
p263
Vnerve agents
p264
sVoutbreak
p265
Vepidemic
p266
sVcombustible
p267
Vflammability
p268
sVperimeter
p269
Vinner cordon, outer cordon
p270
sVexpelling charge
p271
Vcommission directive 2004/57/ec
p272
sVtlv
p273
Vexposure limits for chemicals
p274
sVtoxicodynamics
p275
Vtoxicology
p276
sVconformity assessment
p277
Vcouncil directive 93/15/eec
p278
sVblasting
p279
Vblasting explosives
p280
sVlag
p281
Vcommission regulation (eu) no 245/2013
p282
sVpersistency
p283
Vtoxicology, toxicodynamics
p284
sVtoxicokinetics
p285
Vtoxicology
p286
sVmarburg virus
p287
Vebola virus
p288
sVlethal dose
p289
Vld50
p290
sVnonel
p291
Vshock tube
p292
sVregulation (ec) no 1907/2006
p293
Vreach
p294
sVcbrndet
p295
Vcbrn sampling and detection module
p296
sVtransmissibility
p297
Vtoxicology, toxicodynamics
p298
sVexplosives safety
p299
Vcouncil directive 93/15/eec
p300
sVce-marking
p301
Vcouncil directive 93/15/eec
p302
s.